target datalayout = "e-m:e-p270:32:32-p271:32:32-p272:64:64-i64:64-i128:128-f80:128-n8:16:32:64-S128"
target triple = "x86_64-pc-linux-gnu"

%"class.std::vector.0" = type { %"struct.std::_Vector_base.1" }
%"struct.std::_Vector_base.1" = type { %"struct.std::_Vector_base<const Fact *, std::allocator<const Fact *>>::_Vector_impl" }
%"struct.std::_Vector_base<const Fact *, std::allocator<const Fact *>>::_Vector_impl" = type { %"struct.std::_Vector_base<const Fact *, std::allocator<const Fact *>>::_Vector_impl_data" }
%"struct.std::_Vector_base<const Fact *, std::allocator<const Fact *>>::_Vector_impl_data" = type { ptr, ptr, ptr }
%class.FactMgr = type { %"class.std::map", %"class.std::map", %"class.std::map.8", %"class.std::map.8", %"class.std::map.13", %"class.std::map.13", %"class.std::map.18", %"class.std::vector.23", %"class.std::vector.0", ptr }
%"class.std::map" = type { %"class.std::_Rb_tree" }
%"class.std::_Rb_tree" = type { %"struct.std::_Rb_tree<const Statement *, std::pair<const Statement *const, std::vector<const Fact *>>, std::_Select1st<std::pair<const Statement *const, std::vector<const Fact *>>>, std::less<const Statement *>>::_Rb_tree_impl" }
%"struct.std::_Rb_tree<const Statement *, std::pair<const Statement *const, std::vector<const Fact *>>, std::_Select1st<std::pair<const Statement *const, std::vector<const Fact *>>>, std::less<const Statement *>>::_Rb_tree_impl" = type { [8 x i8], %"struct.std::_Rb_tree_header" }
%"struct.std::_Rb_tree_header" = type { %"struct.std::_Rb_tree_node_base", i64 }
%"struct.std::_Rb_tree_node_base" = type { i32, ptr, ptr, ptr }
%"class.std::map.8" = type { %"class.std::_Rb_tree.9" }
%"class.std::_Rb_tree.9" = type { %"struct.std::_Rb_tree<const Statement *, std::pair<const Statement *const, std::vector<Fact *>>, std::_Select1st<std::pair<const Statement *const, std::vector<Fact *>>>, std::less<const Statement *>>::_Rb_tree_impl" }
%"struct.std::_Rb_tree<const Statement *, std::pair<const Statement *const, std::vector<Fact *>>, std::_Select1st<std::pair<const Statement *const, std::vector<Fact *>>>, std::less<const Statement *>>::_Rb_tree_impl" = type { [8 x i8], %"struct.std::_Rb_tree_header" }
%"class.std::map.13" = type { %"class.std::_Rb_tree.14" }
%"class.std::_Rb_tree.14" = type { %"struct.std::_Rb_tree<const Statement *, std::pair<const Statement *const, Effect>, std::_Select1st<std::pair<const Statement *const, Effect>>, std::less<const Statement *>>::_Rb_tree_impl" }
%"struct.std::_Rb_tree<const Statement *, std::pair<const Statement *const, Effect>, std::_Select1st<std::pair<const Statement *const, Effect>>, std::less<const Statement *>>::_Rb_tree_impl" = type { [8 x i8], %"struct.std::_Rb_tree_header" }
%"class.std::map.18" = type { %"class.std::_Rb_tree.19" }
%"class.std::_Rb_tree.19" = type { %"struct.std::_Rb_tree<const Statement *, std::pair<const Statement *const, bool>, std::_Select1st<std::pair<const Statement *const, bool>>, std::less<const Statement *>>::_Rb_tree_impl" }
%"struct.std::_Rb_tree<const Statement *, std::pair<const Statement *const, bool>, std::_Select1st<std::pair<const Statement *const, bool>>, std::less<const Statement *>>::_Rb_tree_impl" = type { [8 x i8], %"struct.std::_Rb_tree_header" }
%"class.std::vector.23" = type { %"struct.std::_Vector_base.24" }
%"struct.std::_Vector_base.24" = type { %"struct.std::_Vector_base<const CFGEdge *, std::allocator<const CFGEdge *>>::_Vector_impl" }
%"struct.std::_Vector_base<const CFGEdge *, std::allocator<const CFGEdge *>>::_Vector_impl" = type { %"struct.std::_Vector_base<const CFGEdge *, std::allocator<const CFGEdge *>>::_Vector_impl_data" }
%"struct.std::_Vector_base<const CFGEdge *, std::allocator<const CFGEdge *>>::_Vector_impl_data" = type { ptr, ptr, ptr }
%"class.std::vector.31" = type { %"struct.std::_Vector_base.32" }
%"struct.std::_Vector_base.32" = type { %"struct.std::_Vector_base<Variable *, std::allocator<Variable *>>::_Vector_impl" }
%"struct.std::_Vector_base<Variable *, std::allocator<Variable *>>::_Vector_impl" = type { %"struct.std::_Vector_base<Variable *, std::allocator<Variable *>>::_Vector_impl_data" }
%"struct.std::_Vector_base<Variable *, std::allocator<Variable *>>::_Vector_impl_data" = type { ptr, ptr, ptr }
%"class.std::__cxx11::basic_string" = type { %"struct.std::__cxx11::basic_string<char>::_Alloc_hider", i64, %union.anon }
%"struct.std::__cxx11::basic_string<char>::_Alloc_hider" = type { ptr }
%union.anon = type { i64, [8 x i8] }
%"class.std::vector.36" = type { %"struct.std::_Vector_base.37" }
%"struct.std::_Vector_base.37" = type { %"struct.std::_Vector_base<const Variable *, std::allocator<const Variable *>>::_Vector_impl" }
%"struct.std::_Vector_base<const Variable *, std::allocator<const Variable *>>::_Vector_impl" = type { %"struct.std::_Vector_base<const Variable *, std::allocator<const Variable *>>::_Vector_impl_data" }
%"struct.std::_Vector_base<const Variable *, std::allocator<const Variable *>>::_Vector_impl_data" = type { ptr, ptr, ptr }
%class.Lhs = type <{ %class.Expression, ptr, ptr, i8, [7 x i8] }>
%class.Expression = type { ptr, i32, i32, ptr }
%class.Function = type { %"class.std::__cxx11::basic_string", %"class.std::vector.31", ptr, %class.Effect, %"class.std::vector.41", %"class.std::vector.41", ptr, ptr, ptr, %"class.std::vector.36", %"class.std::vector.36", i8, i8, i8, i8, i32, %class.Effect, i8, %"class.std::__cxx11::basic_string", i32, %"class.std::vector.36" }
%"class.std::vector.41" = type { %"struct.std::_Vector_base.42" }
%"struct.std::_Vector_base.42" = type { %"struct.std::_Vector_base<Block *, std::allocator<Block *>>::_Vector_impl" }
%"struct.std::_Vector_base<Block *, std::allocator<Block *>>::_Vector_impl" = type { %"struct.std::_Vector_base<Block *, std::allocator<Block *>>::_Vector_impl_data" }
%"struct.std::_Vector_base<Block *, std::allocator<Block *>>::_Vector_impl_data" = type { ptr, ptr, ptr }
%class.Effect = type <{ %"class.std::vector.36", %"class.std::vector.36", %"class.std::vector.36", i8, i8, [6 x i8] }>
%"struct.std::_Vector_base.47" = type { %"struct.std::_Vector_base<const Expression *, std::allocator<const Expression *>>::_Vector_impl" }
%"struct.std::_Vector_base<const Expression *, std::allocator<const Expression *>>::_Vector_impl" = type { %"struct.std::_Vector_base<const Expression *, std::allocator<const Expression *>>::_Vector_impl_data" }
%"struct.std::_Vector_base<const Expression *, std::allocator<const Expression *>>::_Vector_impl_data" = type { ptr, ptr, ptr }

; Function Attrs: mustprogress nounwind uwtable
define linkonce_odr dso_local noundef nonnull align 8 dereferenceable(8) ptr @_ZNKSt6vectorIPK10ExpressionSaIS2_EEixEm(ptr noundef nonnull align 8 dereferenceable(24) %0, i64 noundef %1) #4 comdat align 2 {
  %3 = alloca ptr, align 8
  %4 = alloca i64, align 8
  store ptr %0, ptr %3, align 8, !tbaa !120
  store i64 %1, ptr %4, align 8, !tbaa !19
  %5 = load ptr, ptr %3, align 8
  %6 = getelementptr inbounds nuw %"struct.std::_Vector_base.47", ptr %5, i32 0, i32 0
  %7 = getelementptr inbounds nuw %"struct.std::_Vector_base<const Expression *, std::allocator<const Expression *>>::_Vector_impl_data", ptr %6, i32 0, i32 0
  %8 = load ptr, ptr %7, align 8, !tbaa !128
  %9 = load i64, ptr %4, align 8, !tbaa !19
  %10 = getelementptr inbounds nuw ptr, ptr %8, i64 %9
  ret ptr %10
}

; Function Attrs: mustprogress nounwind uwtable
define linkonce_odr dso_local noundef nonnull align 8 dereferenceable(8) ptr @_ZNKSt6vectorIP8VariableSaIS1_EEixEm(ptr noundef nonnull align 8 dereferenceable(24) %0, i64 noundef %1) #4 comdat align 2 {
  %3 = alloca ptr, align 8
  %4 = alloca i64, align 8
  store ptr %0, ptr %3, align 8, !tbaa !124
  store i64 %1, ptr %4, align 8, !tbaa !19
  %5 = load ptr, ptr %3, align 8
  %6 = getelementptr inbounds nuw %"struct.std::_Vector_base.32", ptr %5, i32 0, i32 0
  %7 = getelementptr inbounds nuw %"struct.std::_Vector_base<Variable *, std::allocator<Variable *>>::_Vector_impl_data", ptr %6, i32 0, i32 0
  %8 = load ptr, ptr %7, align 8, !tbaa !127
  %9 = load i64, ptr %4, align 8, !tbaa !19
  %10 = getelementptr inbounds nuw ptr, ptr %8, i64 %9
  ret ptr %10
}

; Function Attrs: mustprogress nounwind uwtable
define linkonce_odr dso_local noundef i64 @_ZNKSt6vectorIP8VariableSaIS1_EE4sizeEv(ptr noundef nonnull align 8 dereferenceable(24) %0) #4 comdat align 2 {
  %2 = alloca ptr, align 8
  store ptr %0, ptr %2, align 8, !tbaa !124
  %3 = load ptr, ptr %2, align 8
  %4 = getelementptr inbounds nuw %"struct.std::_Vector_base.32", ptr %3, i32 0, i32 0
  %5 = getelementptr inbounds nuw %"struct.std::_Vector_base<Variable *, std::allocator<Variable *>>::_Vector_impl_data", ptr %4, i32 0, i32 1
  %6 = load ptr, ptr %5, align 8, !tbaa !126
  %7 = getelementptr inbounds nuw %"struct.std::_Vector_base.32", ptr %3, i32 0, i32 0
  %8 = getelementptr inbounds nuw %"struct.std::_Vector_base<Variable *, std::allocator<Variable *>>::_Vector_impl_data", ptr %7, i32 0, i32 0
  %9 = load ptr, ptr %8, align 8, !tbaa !127
  %10 = ptrtoint ptr %6 to i64
  %11 = ptrtoint ptr %9 to i64
  %12 = sub i64 %10, %11
  %13 = sdiv exact i64 %12, 8
  ret i64 %13
}

; Function Attrs: mustprogress uwtable
define dso_local void @_ZN7FactMgr15add_param_factsERKSt6vectorIPK10ExpressionSaIS3_EERS0_IPK4FactSaISA_EE(ptr noundef nonnull align 8 dereferenceable(392) %0, ptr noundef nonnull align 8 dereferenceable(24) %1, ptr noundef nonnull align 8 dereferenceable(24) %2) #5 align 2 personality ptr @__gxx_personality_v0 {
  %4 = alloca ptr, align 8
  %5 = alloca ptr, align 8
  %6 = alloca ptr, align 8
  %7 = alloca i64, align 8
  %8 = alloca ptr, align 8
  %9 = alloca ptr, align 8
  %10 = alloca %class.Lhs, align 8
  %11 = alloca ptr, align 8
  %12 = alloca i32, align 4
  store ptr %0, ptr %4, align 8, !tbaa !13
  store ptr %1, ptr %5, align 8, !tbaa !120
  store ptr %2, ptr %6, align 8, !tbaa !39
  %13 = load ptr, ptr %4, align 8
  call void @llvm.lifetime.start.p0(i64 8, ptr %7) #3
  store i64 0, ptr %7, align 8, !tbaa !19
  br label %14

14:                                               ; preds = %38, %3
  %15 = load i64, ptr %7, align 8, !tbaa !19
  %16 = getelementptr inbounds nuw %class.FactMgr, ptr %13, i32 0, i32 9
  %17 = load ptr, ptr %16, align 8, !tbaa !53
  %18 = getelementptr inbounds nuw %class.Function, ptr %17, i32 0, i32 1
  %19 = call noundef i64 @_ZNKSt6vectorIP8VariableSaIS1_EE4sizeEv(ptr noundef nonnull align 8 dereferenceable(24) %18) #3
  %20 = icmp ult i64 %15, %19
  br i1 %20, label %22, label %21

21:                                               ; preds = %14
  call void @llvm.lifetime.end.p0(i64 8, ptr %7) #3
  br label %45

22:                                               ; preds = %14
  call void @llvm.lifetime.start.p0(i64 8, ptr %8) #3
  %23 = getelementptr inbounds nuw %class.FactMgr, ptr %13, i32 0, i32 9
  %24 = load ptr, ptr %23, align 8, !tbaa !53
  %25 = getelementptr inbounds nuw %class.Function, ptr %24, i32 0, i32 1
  %26 = load i64, ptr %7, align 8, !tbaa !19
  %27 = call noundef nonnull align 8 dereferenceable(8) ptr @_ZNKSt6vectorIP8VariableSaIS1_EEixEm(ptr noundef nonnull align 8 dereferenceable(24) %25, i64 noundef %26) #3
  %28 = load ptr, ptr %27, align 8, !tbaa !17
  store ptr %28, ptr %8, align 8, !tbaa !17
  call void @llvm.lifetime.start.p0(i64 8, ptr %9) #3
  %29 = load ptr, ptr %5, align 8, !tbaa !120
  %30 = load i64, ptr %7, align 8, !tbaa !19
  %31 = call noundef nonnull align 8 dereferenceable(8) ptr @_ZNKSt6vectorIPK10ExpressionSaIS2_EEixEm(ptr noundef nonnull align 8 dereferenceable(24) %29, i64 noundef %30) #3
  %32 = load ptr, ptr %31, align 8, !tbaa !122
  store ptr %32, ptr %9, align 8, !tbaa !122
  call void @llvm.lifetime.start.p0(i64 48, ptr %10) #3
  %33 = load ptr, ptr %8, align 8, !tbaa !17
  call void @_ZN3LhsC1ERK8Variable(ptr noundef nonnull align 8 dereferenceable(41) %10, ptr noundef nonnull align 8 dereferenceable(200) %33)
  %34 = load ptr, ptr %9, align 8, !tbaa !122
  %35 = load ptr, ptr %6, align 8, !tbaa !39
  %36 = invoke noundef zeroext i1 @_ZN7FactMgr22update_fact_for_assignEPK3LhsPK10ExpressionRSt6vectorIPK4FactSaIS9_EE(ptr noundef %10, ptr noundef %34, ptr noundef nonnull align 8 dereferenceable(24) %35)
          to label %37 unwind label %41

37:                                               ; preds = %22
  call void @_ZN3LhsD1Ev(ptr noundef nonnull align 8 dereferenceable(41) %10) #3
  call void @llvm.lifetime.end.p0(i64 48, ptr %10) #3
  call void @llvm.lifetime.end.p0(i64 8, ptr %9) #3
  call void @llvm.lifetime.end.p0(i64 8, ptr %8) #3
  br label %38

38:                                               ; preds = %37
  %39 = load i64, ptr %7, align 8, !tbaa !19
  %40 = add i64 %39, 1
  store i64 %40, ptr %7, align 8, !tbaa !19
  br label %14, !llvm.loop !123

41:                                               ; preds = %22
  %42 = landingpad { ptr, i32 }
          cleanup
  %43 = extractvalue { ptr, i32 } %42, 0
  store ptr %43, ptr %11, align 8
  %44 = extractvalue { ptr, i32 } %42, 1
  store i32 %44, ptr %12, align 4
  call void @_ZN3LhsD1Ev(ptr noundef nonnull align 8 dereferenceable(41) %10) #3
  call void @llvm.lifetime.end.p0(i64 48, ptr %10) #3
  call void @llvm.lifetime.end.p0(i64 8, ptr %9) #3
  call void @llvm.lifetime.end.p0(i64 8, ptr %8) #3
  call void @llvm.lifetime.end.p0(i64 8, ptr %7) #3
  br label %46

45:                                               ; preds = %21
  ret void

46:                                               ; preds = %41
  %47 = load ptr, ptr %11, align 8
  %48 = load i32, ptr %12, align 4
  %49 = insertvalue { ptr, i32 } poison, ptr %47, 0
  %50 = insertvalue { ptr, i32 } %49, i32 %48, 1
  resume { ptr, i32 } %50
}