; Function Attrs: mustprogress uwtable
define dso_local void @_ZN7FactMgr15add_param_factsERKSt6vectorIPK10ExpressionSaIS3_EERS0_IPK4FactSaISA_EE(ptr noundef nonnull readonly align 8 captures(none) dereferenceable(392) %0, ptr noundef nonnull readonly align 8 captures(none) dereferenceable(24) %1, ptr noundef nonnull align 8 dereferenceable(24) %2) local_unnamed_addr #4 align 2 personality ptr @__gxx_personality_v0 {
  %4 = alloca %class.Lhs, align 8
  %5 = getelementptr inbounds nuw i8, ptr %0, i64 384
  %6 = load ptr, ptr %5, align 8, !tbaa !38
  %7 = getelementptr inbounds nuw i8, ptr %6, i64 32
  %8 = getelementptr inbounds nuw i8, ptr %6, i64 40
  %9 = load ptr, ptr %8, align 8, !tbaa !105
  %10 = load ptr, ptr %7, align 8, !tbaa !106
  %.not = icmp eq ptr %9, %10
  br i1 %.not, label %._crit_edge, label %.lr.ph

._crit_edge:                                      ; preds = %18, %3
  ret void

.lr.ph:                                           ; preds = %3, %18
  %11 = phi ptr [ %24, %18 ], [ %10, %3 ]
  %.010 = phi i64 [ %19, %18 ], [ 0, %3 ]
  %12 = getelementptr inbounds nuw ptr, ptr %11, i64 %.010
  %13 = load ptr, ptr %12, align 8, !tbaa !107
  %14 = load ptr, ptr %1, align 8, !tbaa !109
  %15 = getelementptr inbounds nuw ptr, ptr %14, i64 %.010
  %16 = load ptr, ptr %15, align 8, !tbaa !112
  call void @llvm.lifetime.start.p0(i64 48, ptr nonnull %4) #22
  call void @_ZN3LhsC1ERK8Variable(ptr noundef nonnull align 8 dereferenceable(41) %4, ptr noundef nonnull align 8 dereferenceable(200) %13)
  %17 = invoke noundef zeroext i1 @_ZN7FactMgr22update_fact_for_assignEPK3LhsPK10ExpressionRSt6vectorIPK4FactSaIS9_EE(ptr noundef nonnull %4, ptr noundef %16, ptr noundef nonnull align 8 dereferenceable(24) %2)
          to label %18 unwind label %30

18:                                               ; preds = %.lr.ph
  call void @_ZN3LhsD1Ev(ptr noundef nonnull align 8 dereferenceable(41) %4) #22
  call void @llvm.lifetime.end.p0(i64 48, ptr nonnull %4) #22
  %19 = add nuw i64 %.010, 1
  %20 = load ptr, ptr %5, align 8, !tbaa !38
  %21 = getelementptr inbounds nuw i8, ptr %20, i64 32
  %22 = getelementptr inbounds nuw i8, ptr %20, i64 40
  %23 = load ptr, ptr %22, align 8, !tbaa !105
  %24 = load ptr, ptr %21, align 8, !tbaa !106
  %25 = ptrtoint ptr %23 to i64
  %26 = ptrtoint ptr %24 to i64
  %27 = sub i64 %25, %26
  %28 = ashr exact i64 %27, 3
  %29 = icmp ult i64 %19, %28
  br i1 %29, label %.lr.ph, label %._crit_edge, !llvm.loop !113

30:                                               ; preds = %.lr.ph
  %31 = landingpad { ptr, i32 }
          cleanup
  call void @_ZN3LhsD1Ev(ptr noundef nonnull align 8 dereferenceable(41) %4) #22
  call void @llvm.lifetime.end.p0(i64 48, ptr nonnull %4) #22
  resume { ptr, i32 } %31
}